target datalayout = "e-m:e-p270:32:32-p271:32:32-p272:64:64-i64:64-i128:128-f80:128-n8:16:32:64-S128"
target triple = "x86_64-pc-linux-gnu"

@.str.72 = private unnamed_addr constant [8 x i8] c"storage\00", align 1
@.str.73 = private unnamed_addr constant [6 x i8] c"block\00", align 1
@.str.74 = private unnamed_addr constant [7 x i8] c"memory\00", align 1
@.str.75 = private unnamed_addr constant [8 x i8] c"network\00", align 1
@.str.76 = private unnamed_addr constant [5 x i8] c"ofed\00", align 1
@.str.77 = private unnamed_addr constant [12 x i8] c"openfabrics\00", align 1
@.str.78 = private unnamed_addr constant [4 x i8] c"dma\00", align 1
@.str.79 = private unnamed_addr constant [4 x i8] c"gpu\00", align 1
@.str.80 = private unnamed_addr constant [7 x i8] c"coproc\00", align 1
@.str.81 = private unnamed_addr constant [13 x i8] c"co-processor\00", align 1

; Function Attrs: nounwind uwtable
define internal i32 @hwloc__osdev_type_sscanf(ptr noundef %0, ptr noundef %1) #0 {
  %3 = alloca i32, align 4
  %4 = alloca ptr, align 8
  %5 = alloca ptr, align 8
  store ptr %0, ptr %4, align 8, !tbaa !66
  store ptr %1, ptr %5, align 8, !tbaa !70
  %6 = load ptr, ptr %4, align 8, !tbaa !66
  %7 = call ptr @hwloc__type_match(ptr noundef %6, ptr noundef @.str.72, i64 noundef 4)
  %8 = icmp ne ptr %7, null
  br i1 %8, label %13, label %9

9:                                                ; preds = %2
  %10 = load ptr, ptr %4, align 8, !tbaa !66
  %11 = call ptr @hwloc__type_match(ptr noundef %10, ptr noundef @.str.73, i64 noundef 4)
  %12 = icmp ne ptr %11, null
  br i1 %12, label %13, label %15

13:                                               ; preds = %9, %2
  %14 = load ptr, ptr %5, align 8, !tbaa !70
  store i64 1, ptr %14, align 8, !tbaa !53
  store i32 1, ptr %3, align 4
  br label %66

15:                                               ; preds = %9
  %16 = load ptr, ptr %4, align 8, !tbaa !66
  %17 = call ptr @hwloc__type_match(ptr noundef %16, ptr noundef @.str.74, i64 noundef 3)
  %18 = icmp ne ptr %17, null
  br i1 %18, label %19, label %21

19:                                               ; preds = %15
  %20 = load ptr, ptr %5, align 8, !tbaa !70
  store i64 2, ptr %20, align 8, !tbaa !53
  store i32 1, ptr %3, align 4
  br label %66

21:                                               ; preds = %15
  %22 = load ptr, ptr %4, align 8, !tbaa !66
  %23 = call ptr @hwloc__type_match(ptr noundef %22, ptr noundef @.str.75, i64 noundef 3)
  %24 = icmp ne ptr %23, null
  br i1 %24, label %25, label %27

25:                                               ; preds = %21
  %26 = load ptr, ptr %5, align 8, !tbaa !70
  store i64 16, ptr %26, align 8, !tbaa !53
  store i32 1, ptr %3, align 4
  br label %66

27:                                               ; preds = %21
  %28 = load ptr, ptr %4, align 8, !tbaa !66
  %29 = call ptr @hwloc__type_match(ptr noundef %28, ptr noundef @.str.76, i64 noundef 4)
  %30 = icmp ne ptr %29, null
  br i1 %30, label %35, label %31

31:                                               ; preds = %27
  %32 = load ptr, ptr %4, align 8, !tbaa !66
  %33 = call ptr @hwloc__type_match(ptr noundef %32, ptr noundef @.str.77, i64 noundef 7)
  %34 = icmp ne ptr %33, null
  br i1 %34, label %35, label %37

35:                                               ; preds = %31, %27
  %36 = load ptr, ptr %5, align 8, !tbaa !70
  store i64 32, ptr %36, align 8, !tbaa !53
  store i32 1, ptr %3, align 4
  br label %66

37:                                               ; preds = %31
  %38 = load ptr, ptr %4, align 8, !tbaa !66
  %39 = call ptr @hwloc__type_match(ptr noundef %38, ptr noundef @.str.78, i64 noundef 3)
  %40 = icmp ne ptr %39, null
  br i1 %40, label %41, label %43

41:                                               ; preds = %37
  %42 = load ptr, ptr %5, align 8, !tbaa !70
  store i64 64, ptr %42, align 8, !tbaa !53
  store i32 1, ptr %3, align 4
  br label %66

43:                                               ; preds = %37
  %44 = load ptr, ptr %4, align 8, !tbaa !66
  %45 = call ptr @hwloc__type_match(ptr noundef %44, ptr noundef @.str.79, i64 noundef 3)
  %46 = icmp ne ptr %45, null
  br i1 %46, label %47, label %49

47:                                               ; preds = %43
  %48 = load ptr, ptr %5, align 8, !tbaa !70
  store i64 4, ptr %48, align 8, !tbaa !53
  store i32 1, ptr %3, align 4
  br label %66

49:                                               ; preds = %43
  %50 = load ptr, ptr %4, align 8, !tbaa !66
  %51 = call ptr @hwloc__type_match(ptr noundef %50, ptr noundef @.str.80, i64 noundef 5)
  %52 = icmp ne ptr %51, null
  br i1 %52, label %57, label %53

53:                                               ; preds = %49
  %54 = load ptr, ptr %4, align 8, !tbaa !66
  %55 = call ptr @hwloc__type_match(ptr noundef %54, ptr noundef @.str.81, i64 noundef 6)
  %56 = icmp ne ptr %55, null
  br i1 %56, label %57, label %59

57:                                               ; preds = %53, %49
  %58 = load ptr, ptr %5, align 8, !tbaa !70
  store i64 8, ptr %58, align 8, !tbaa !53
  store i32 1, ptr %3, align 4
  br label %66

59:                                               ; preds = %53
  br label %60

60:                                               ; preds = %59
  br label %61

61:                                               ; preds = %60
  br label %62

62:                                               ; preds = %61
  br label %63

63:                                               ; preds = %62
  br label %64

64:                                               ; preds = %63
  br label %65

65:                                               ; preds = %64
  store i32 0, ptr %3, align 4
  br label %66

66:                                               ; preds = %65, %57, %47, %41, %35, %25, %19, %13
  %67 = load i32, ptr %3, align 4
  ret i32 %67
}