; Function Attrs: nofree norecurse nosync nounwind memory(argmem: readwrite) uwtable
define internal fastcc range(i32 0, 2) i32 @hwloc__osdev_type_sscanf(ptr noundef readonly captures(address) %0, ptr noundef nonnull writeonly captures(none) %1) unnamed_addr #10 {
  %3 = load i8, ptr %0, align 1, !tbaa !60
  %.not39.i = icmp eq i8 %3, 0
  br i1 %.not39.i, label %hwloc__type_match.exit85.thread, label %.lr.ph.i

._crit_edge.i:                                    ; preds = %16
  %4 = icmp ult i32 %17, 4
  br i1 %4, label %.lr.ph.i27.preheader, label %.sink.split

.lr.ph.i:                                         ; preds = %2, %16
  %5 = phi i8 [ %20, %16 ], [ %3, %2 ]
  %.042.i = phi i32 [ %17, %16 ], [ 0, %2 ]
  %.02141.i = phi ptr [ %19, %16 ], [ @.str.72, %2 ]
  %.02240.i = phi ptr [ %18, %16 ], [ %0, %2 ]
  %6 = load i8, ptr %.02141.i, align 1, !tbaa !60
  %.not28.i = icmp eq i8 %5, %6
  %7 = sext i8 %5 to i32
  %8 = sext i8 %6 to i32
  %9 = add nsw i32 %8, -32
  %.not29.i = icmp eq i32 %9, %7
  %or.cond.i = select i1 %.not28.i, i1 true, i1 %.not29.i
  br i1 %or.cond.i, label %16, label %10

10:                                               ; preds = %.lr.ph.i
  %11 = add i8 %5, -97
  %or.cond32.i = icmp ult i8 %11, 26
  br i1 %or.cond32.i, label %.lr.ph.i27.preheader, label %12

.lr.ph.i27.preheader:                             ; preds = %._crit_edge.i, %12, %10
  br label %.lr.ph.i27

12:                                               ; preds = %10
  %13 = add i8 %5, -65
  %or.cond33.i = icmp ult i8 %13, 26
  %14 = icmp eq i8 %5, 45
  %or.cond35.i = or i1 %14, %or.cond33.i
  %15 = icmp ult i32 %.042.i, 4
  %or.cond = select i1 %or.cond35.i, i1 true, i1 %15
  br i1 %or.cond, label %.lr.ph.i27.preheader, label %.sink.split

16:                                               ; preds = %.lr.ph.i
  %17 = add i32 %.042.i, 1
  %18 = getelementptr inbounds nuw i8, ptr %.02240.i, i64 1
  %19 = getelementptr inbounds nuw i8, ptr %.02141.i, i64 1
  %20 = load i8, ptr %18, align 1, !tbaa !60
  %.not.i = icmp eq i8 %20, 0
  br i1 %.not.i, label %._crit_edge.i, label %.lr.ph.i

._crit_edge.i41:                                  ; preds = %33
  %21 = icmp ult i32 %34, 4
  br i1 %21, label %.lr.ph.i47.preheader, label %.sink.split

.lr.ph.i27:                                       ; preds = %.lr.ph.i27.preheader, %33
  %22 = phi i8 [ %37, %33 ], [ %3, %.lr.ph.i27.preheader ]
  %.042.i28 = phi i32 [ %34, %33 ], [ 0, %.lr.ph.i27.preheader ]
  %.02141.i29 = phi ptr [ %36, %33 ], [ @.str.73, %.lr.ph.i27.preheader ]
  %.02240.i30 = phi ptr [ %35, %33 ], [ %0, %.lr.ph.i27.preheader ]
  %23 = load i8, ptr %.02141.i29, align 1, !tbaa !60
  %.not28.i31 = icmp eq i8 %22, %23
  %24 = sext i8 %22 to i32
  %25 = sext i8 %23 to i32
  %26 = add nsw i32 %25, -32
  %.not29.i32 = icmp eq i32 %26, %24
  %or.cond.i33 = select i1 %.not28.i31, i1 true, i1 %.not29.i32
  br i1 %or.cond.i33, label %33, label %27

27:                                               ; preds = %.lr.ph.i27
  %28 = add i8 %22, -97
  %or.cond32.i34 = icmp ult i8 %28, 26
  br i1 %or.cond32.i34, label %.lr.ph.i47.preheader, label %29

29:                                               ; preds = %27
  %30 = add i8 %22, -65
  %or.cond33.i35 = icmp ult i8 %30, 26
  %31 = icmp eq i8 %22, 45
  %or.cond35.i36 = or i1 %31, %or.cond33.i35
  %32 = icmp ult i32 %.042.i28, 4
  %or.cond123 = select i1 %or.cond35.i36, i1 true, i1 %32
  br i1 %or.cond123, label %.lr.ph.i47.preheader, label %.sink.split

.lr.ph.i47.preheader:                             ; preds = %._crit_edge.i41, %27, %29
  br label %.lr.ph.i47

33:                                               ; preds = %.lr.ph.i27
  %34 = add i32 %.042.i28, 1
  %35 = getelementptr inbounds nuw i8, ptr %.02240.i30, i64 1
  %36 = getelementptr inbounds nuw i8, ptr %.02141.i29, i64 1
  %37 = load i8, ptr %35, align 1, !tbaa !60
  %.not.i39 = icmp eq i8 %37, 0
  br i1 %.not.i39, label %._crit_edge.i41, label %.lr.ph.i27

._crit_edge.i61:                                  ; preds = %50
  %38 = icmp ult i32 %51, 3
  br i1 %38, label %.lr.ph.i67.preheader, label %.sink.split

.lr.ph.i47:                                       ; preds = %.lr.ph.i47.preheader, %50
  %39 = phi i8 [ %54, %50 ], [ %3, %.lr.ph.i47.preheader ]
  %.042.i48 = phi i32 [ %51, %50 ], [ 0, %.lr.ph.i47.preheader ]
  %.02141.i49 = phi ptr [ %53, %50 ], [ @.str.74, %.lr.ph.i47.preheader ]
  %.02240.i50 = phi ptr [ %52, %50 ], [ %0, %.lr.ph.i47.preheader ]
  %40 = load i8, ptr %.02141.i49, align 1, !tbaa !60
  %.not28.i51 = icmp eq i8 %39, %40
  %41 = sext i8 %39 to i32
  %42 = sext i8 %40 to i32
  %43 = add nsw i32 %42, -32
  %.not29.i52 = icmp eq i32 %43, %41
  %or.cond.i53 = select i1 %.not28.i51, i1 true, i1 %.not29.i52
  br i1 %or.cond.i53, label %50, label %44

44:                                               ; preds = %.lr.ph.i47
  %45 = add i8 %39, -97
  %or.cond32.i54 = icmp ult i8 %45, 26
  br i1 %or.cond32.i54, label %.lr.ph.i67.preheader, label %46

46:                                               ; preds = %44
  %47 = add i8 %39, -65
  %or.cond33.i55 = icmp ult i8 %47, 26
  %48 = icmp eq i8 %39, 45
  %or.cond35.i56 = or i1 %48, %or.cond33.i55
  %49 = icmp ult i32 %.042.i48, 3
  %or.cond126 = select i1 %or.cond35.i56, i1 true, i1 %49
  br i1 %or.cond126, label %.lr.ph.i67.preheader, label %.sink.split

.lr.ph.i67.preheader:                             ; preds = %._crit_edge.i61, %44, %46
  br label %.lr.ph.i67

50:                                               ; preds = %.lr.ph.i47
  %51 = add i32 %.042.i48, 1
  %52 = getelementptr inbounds nuw i8, ptr %.02240.i50, i64 1
  %53 = getelementptr inbounds nuw i8, ptr %.02141.i49, i64 1
  %54 = load i8, ptr %52, align 1, !tbaa !60
  %.not.i59 = icmp eq i8 %54, 0
  br i1 %.not.i59, label %._crit_edge.i61, label %.lr.ph.i47

._crit_edge.i81:                                  ; preds = %67
  %55 = icmp ult i32 %68, 3
  br i1 %55, label %hwloc__type_match.exit85.thread, label %.sink.split

.lr.ph.i67:                                       ; preds = %.lr.ph.i67.preheader, %67
  %56 = phi i8 [ %71, %67 ], [ %3, %.lr.ph.i67.preheader ]
  %.042.i68 = phi i32 [ %68, %67 ], [ 0, %.lr.ph.i67.preheader ]
  %.02141.i69 = phi ptr [ %70, %67 ], [ @.str.75, %.lr.ph.i67.preheader ]
  %.02240.i70 = phi ptr [ %69, %67 ], [ %0, %.lr.ph.i67.preheader ]
  %57 = load i8, ptr %.02141.i69, align 1, !tbaa !60
  %.not28.i71 = icmp eq i8 %56, %57
  %58 = sext i8 %56 to i32
  %59 = sext i8 %57 to i32
  %60 = add nsw i32 %59, -32
  %.not29.i72 = icmp eq i32 %60, %58
  %or.cond.i73 = select i1 %.not28.i71, i1 true, i1 %.not29.i72
  br i1 %or.cond.i73, label %67, label %61

61:                                               ; preds = %.lr.ph.i67
  %62 = add i8 %56, -97
  %or.cond32.i74 = icmp ult i8 %62, 26
  br i1 %or.cond32.i74, label %hwloc__type_match.exit85.thread, label %63

63:                                               ; preds = %61
  %64 = add i8 %56, -65
  %or.cond33.i75 = icmp ult i8 %64, 26
  %65 = icmp eq i8 %56, 45
  %or.cond35.i76 = or i1 %65, %or.cond33.i75
  %66 = icmp ult i32 %.042.i68, 3
  %or.cond129 = select i1 %or.cond35.i76, i1 true, i1 %66
  br i1 %or.cond129, label %hwloc__type_match.exit85.thread, label %.sink.split

67:                                               ; preds = %.lr.ph.i67
  %68 = add i32 %.042.i68, 1
  %69 = getelementptr inbounds nuw i8, ptr %.02240.i70, i64 1
  %70 = getelementptr inbounds nuw i8, ptr %.02141.i69, i64 1
  %71 = load i8, ptr %69, align 1, !tbaa !60
  %.not.i79 = icmp eq i8 %71, 0
  br i1 %.not.i79, label %._crit_edge.i81, label %.lr.ph.i67

hwloc__type_match.exit85.thread:                  ; preds = %2, %._crit_edge.i81, %61, %63
  %72 = tail call fastcc ptr @hwloc__type_match(ptr noundef nonnull %0, ptr noundef nonnull @.str.76, i64 noundef 4)
  %.not20 = icmp eq ptr %72, null
  br i1 %.not20, label %73, label %.sink.split

73:                                               ; preds = %hwloc__type_match.exit85.thread
  %74 = tail call fastcc ptr @hwloc__type_match(ptr noundef nonnull %0, ptr noundef nonnull @.str.77, i64 noundef 7)
  %.not21 = icmp eq ptr %74, null
  br i1 %.not21, label %75, label %.sink.split

75:                                               ; preds = %73
  %76 = tail call fastcc ptr @hwloc__type_match(ptr noundef nonnull %0, ptr noundef nonnull @.str.78, i64 noundef 3)
  %.not22 = icmp eq ptr %76, null
  br i1 %.not22, label %77, label %.sink.split

77:                                               ; preds = %75
  %78 = tail call fastcc ptr @hwloc__type_match(ptr noundef nonnull %0, ptr noundef nonnull @.str.79, i64 noundef 3)
  %.not23 = icmp eq ptr %78, null
  br i1 %.not23, label %79, label %.sink.split

79:                                               ; preds = %77
  %80 = tail call fastcc ptr @hwloc__type_match(ptr noundef nonnull %0, ptr noundef nonnull @.str.80, i64 noundef 5)
  %.not24 = icmp eq ptr %80, null
  br i1 %.not24, label %81, label %.sink.split

81:                                               ; preds = %79
  %82 = tail call fastcc ptr @hwloc__type_match(ptr noundef nonnull %0, ptr noundef nonnull @.str.81, i64 noundef 6)
  %.not25 = icmp eq ptr %82, null
  br i1 %.not25, label %83, label %.sink.split

.sink.split:                                      ; preds = %79, %81, %77, %75, %hwloc__type_match.exit85.thread, %73, %._crit_edge.i81, %63, %._crit_edge.i61, %46, %._crit_edge.i, %._crit_edge.i41, %12, %29
  %.sink = phi i64 [ 1, %29 ], [ 1, %12 ], [ 1, %._crit_edge.i41 ], [ 1, %._crit_edge.i ], [ 2, %46 ], [ 2, %._crit_edge.i61 ], [ 16, %63 ], [ 16, %._crit_edge.i81 ], [ 32, %73 ], [ 32, %hwloc__type_match.exit85.thread ], [ 64, %75 ], [ 4, %77 ], [ 8, %81 ], [ 8, %79 ]
  store i64 %.sink, ptr %1, align 8, !tbaa !59
  br label %83

83:                                               ; preds = %.sink.split, %81
  %.0 = phi i32 [ 0, %81 ], [ 1, %.sink.split ]
  ret i32 %.0
}